target datalayout = "e-m:e-p270:32:32-p271:32:32-p272:64:64-i64:64-i128:128-f80:128-n8:16:32:64-S128"
target triple = "x86_64-pc-linux-gnu"

%struct.hashmap_iter = type { ptr, ptr, i32 }
%struct.pseudo_merge_group = type { ptr, %struct.strmap, ptr, i64, i64, double, i32, double, i32, i64, i64 }
%struct.strmap = type { %struct.hashmap, ptr, i8 }
%struct.hashmap = type { ptr, ptr, ptr, i32, i32, i32, i32, i8 }
%struct.strmap_entry = type { %struct.hashmap_entry, ptr, ptr }
%struct.hashmap_entry = type { ptr, i32 }
%struct.pseudo_merge_matches = type { ptr, ptr, i64, i64, i64, i64 }

; Function Attrs: inlinehint nounwind uwtable
define internal ptr @container_of_or_null_offset(ptr noundef %0, i64 noundef %1) #4 {
  %3 = alloca ptr, align 8
  %4 = alloca i64, align 8
  store ptr %0, ptr %3, align 8, !tbaa !35
  store i64 %1, ptr %4, align 8, !tbaa !36
  %5 = load ptr, ptr %3, align 8, !tbaa !35
  %6 = icmp ne ptr %5, null
  br i1 %6, label %7, label %12

7:                                                ; preds = %2
  %8 = load ptr, ptr %3, align 8, !tbaa !35
  %9 = load i64, ptr %4, align 8, !tbaa !36
  %10 = sub i64 0, %9
  %11 = getelementptr inbounds i8, ptr %8, i64 %10
  br label %13

12:                                               ; preds = %2
  br label %13

13:                                               ; preds = %12, %7
  %14 = phi ptr [ %11, %7 ], [ null, %12 ]
  ret ptr %14
}

; Function Attrs: inlinehint nounwind uwtable
define internal ptr @hashmap_iter_first(ptr noundef %0, ptr noundef %1) #4 {
  %3 = alloca ptr, align 8
  %4 = alloca ptr, align 8
  store ptr %0, ptr %3, align 8, !tbaa !37
  store ptr %1, ptr %4, align 8, !tbaa !39
  %5 = load ptr, ptr %3, align 8, !tbaa !37
  %6 = load ptr, ptr %4, align 8, !tbaa !39
  call void @hashmap_iter_init(ptr noundef %5, ptr noundef %6)
  %7 = load ptr, ptr %4, align 8, !tbaa !39
  %8 = call ptr @hashmap_iter_next(ptr noundef %7)
  ret ptr %8
}

; Function Attrs: nounwind uwtable
define dso_local void @pseudo_merge_group_release(ptr noundef %0) #0 {
  %2 = alloca ptr, align 8
  %3 = alloca %struct.hashmap_iter, align 8
  %4 = alloca ptr, align 8
  %5 = alloca ptr, align 8
  store ptr %0, ptr %2, align 8, !tbaa !4
  call void @llvm.lifetime.start.p0(i64 24, ptr %3) #10
  call void @llvm.lifetime.start.p0(i64 8, ptr %4) #10
  %6 = load ptr, ptr %2, align 8, !tbaa !4
  %7 = getelementptr inbounds nuw %struct.pseudo_merge_group, ptr %6, i32 0, i32 0
  %8 = load ptr, ptr %7, align 8, !tbaa !9
  call void @regfree(ptr noundef %8)
  %9 = load ptr, ptr %2, align 8, !tbaa !4
  %10 = getelementptr inbounds nuw %struct.pseudo_merge_group, ptr %9, i32 0, i32 0
  %11 = load ptr, ptr %10, align 8, !tbaa !9
  call void @free(ptr noundef %11) #10
  store ptr null, ptr %4, align 8, !tbaa !20
  %12 = load ptr, ptr %2, align 8, !tbaa !4
  %13 = getelementptr inbounds nuw %struct.pseudo_merge_group, ptr %12, i32 0, i32 1
  %14 = getelementptr inbounds nuw %struct.strmap, ptr %13, i32 0, i32 0
  %15 = call ptr @hashmap_iter_first(ptr noundef %14, ptr noundef %3)
  %16 = call ptr @container_of_or_null_offset(ptr noundef %15, i64 noundef 0)
  store ptr %16, ptr %4, align 8, !tbaa !20
  br label %17

17:                                               ; preds = %31, %1
  %18 = load ptr, ptr %4, align 8, !tbaa !20
  %19 = icmp ne ptr %18, null
  br i1 %19, label %20, label %34

20:                                               ; preds = %17
  call void @llvm.lifetime.start.p0(i64 8, ptr %5) #10
  %21 = load ptr, ptr %4, align 8, !tbaa !20
  %22 = getelementptr inbounds nuw %struct.strmap_entry, ptr %21, i32 0, i32 2
  %23 = load ptr, ptr %22, align 8, !tbaa !22
  store ptr %23, ptr %5, align 8, !tbaa !27
  %24 = load ptr, ptr %5, align 8, !tbaa !27
  %25 = getelementptr inbounds nuw %struct.pseudo_merge_matches, ptr %24, i32 0, i32 0
  %26 = load ptr, ptr %25, align 8, !tbaa !29
  call void @free(ptr noundef %26) #10
  %27 = load ptr, ptr %5, align 8, !tbaa !27
  %28 = getelementptr inbounds nuw %struct.pseudo_merge_matches, ptr %27, i32 0, i32 1
  %29 = load ptr, ptr %28, align 8, !tbaa !31
  call void @free(ptr noundef %29) #10
  %30 = load ptr, ptr %5, align 8, !tbaa !27
  call void @free(ptr noundef %30) #10
  call void @llvm.lifetime.end.p0(i64 8, ptr %5) #10
  br label %31

31:                                               ; preds = %20
  %32 = call ptr @hashmap_iter_next(ptr noundef %3)
  %33 = call ptr @container_of_or_null_offset(ptr noundef %32, i64 noundef 0)
  store ptr %33, ptr %4, align 8, !tbaa !20
  br label %17, !llvm.loop !32

34:                                               ; preds = %17
  %35 = load ptr, ptr %2, align 8, !tbaa !4
  %36 = getelementptr inbounds nuw %struct.pseudo_merge_group, ptr %35, i32 0, i32 1
  call void @strmap_clear(ptr noundef %36, i32 noundef 0)
  %37 = load ptr, ptr %2, align 8, !tbaa !4
  %38 = getelementptr inbounds nuw %struct.pseudo_merge_group, ptr %37, i32 0, i32 2
  %39 = load ptr, ptr %38, align 8, !tbaa !34
  call void @free(ptr noundef %39) #10
  call void @llvm.lifetime.end.p0(i64 8, ptr %4) #10
  call void @llvm.lifetime.end.p0(i64 24, ptr %3) #10
  ret void
}