; Function Attrs: nounwind uwtable
define dso_local void @pseudo_merge_group_release(ptr noundef %0) local_unnamed_addr #0 {
  %2 = alloca %struct.hashmap_iter, align 8
  call void @llvm.lifetime.start.p0(i64 24, ptr nonnull %2) #15
  %3 = load ptr, ptr %0, align 8, !tbaa !4
  tail call void @regfree(ptr noundef %3) #15
  %4 = load ptr, ptr %0, align 8, !tbaa !4
  tail call void @free(ptr noundef %4) #15
  %5 = getelementptr inbounds nuw i8, ptr %0, i64 8
  call void @hashmap_iter_init(ptr noundef nonnull %5, ptr noundef nonnull %2) #15
  %6 = call ptr @hashmap_iter_next(ptr noundef nonnull %2) #15
  %.not10 = icmp eq ptr %6, null
  br i1 %.not10, label %._crit_edge, label %.lr.ph

.lr.ph:                                           ; preds = %1, %.lr.ph
  %.011 = phi ptr [ %12, %.lr.ph ], [ %6, %1 ]
  %7 = getelementptr inbounds nuw i8, ptr %.011, i64 24
  %8 = load ptr, ptr %7, align 8, !tbaa !18
  %9 = load ptr, ptr %8, align 8, !tbaa !23
  call void @free(ptr noundef %9) #15
  %10 = getelementptr inbounds nuw i8, ptr %8, i64 8
  %11 = load ptr, ptr %10, align 8, !tbaa !25
  call void @free(ptr noundef %11) #15
  call void @free(ptr noundef %8) #15
  %12 = call ptr @hashmap_iter_next(ptr noundef nonnull %2) #15
  %.not = icmp eq ptr %12, null
  br i1 %.not, label %._crit_edge, label %.lr.ph, !llvm.loop !26

._crit_edge:                                      ; preds = %.lr.ph, %1
  call void @strmap_clear(ptr noundef nonnull %5, i32 noundef 0) #15
  %13 = getelementptr inbounds nuw i8, ptr %0, i64 72
  %14 = load ptr, ptr %13, align 8, !tbaa !28
  call void @free(ptr noundef %14) #15
  call void @llvm.lifetime.end.p0(i64 24, ptr nonnull %2) #15
  ret void
}